	.file	"omp_mat_mul_sse_ppl_asm.c"
	.text
.Ltext0:
.globl omp_mat_mul_sse_ppl_asm
	.type	omp_mat_mul_sse_ppl_asm, @function
omp_mat_mul_sse_ppl_asm:
.LFB0:
	.file 1 "omp_mat_mul_sse_ppl_asm.c"
	.loc 1 20 0
	.cfi_startproc
	pushq	%rbp
.LCFI0:
	.cfi_def_cfa_offset 16
	movq	%rsp, %rbp
	.cfi_offset 6, -16
.LCFI1:
	.cfi_def_cfa_register 6
	pushq	%rbx
	subq	$376, %rsp
	movq	%rsi, %rbx
	.cfi_offset 3, -24
	movq	%rcx, %rax
	movq	%r8, %rsi
	movq	%r9, %rcx
	movq	%rdi, -352(%rbp)
	movq	%rbx, -344(%rbp)
	movq	%rdx, -368(%rbp)
	movq	%rax, -360(%rbp)
	movq	%rsi, -384(%rbp)
	movq	%rcx, -376(%rbp)
	.loc 1 21 0
	movl	-344(%rbp), %eax
	movl	%eax, -20(%rbp)
	.loc 1 22 0
	movl	$0, -24(%rbp)
	.loc 1 23 0
	movl	-20(%rbp), %eax
	leal	31(%rax), %edx
	testl	%eax, %eax
	cmovs	%edx, %eax
	sarl	$5, %eax
	movl	%eax, -28(%rbp)
	.loc 1 26 0
	movl	-356(%rbp), %edx
	movl	-360(%rbp), %ebx
	leaq	-80(%rbp), %rax
	movl	$0, %ecx
	movl	%ebx, %esi
	movq	%rax, %rdi
	call	init_matrix
	.loc 1 28 0
	movl	$0, -32(%rbp)
	.loc 1 29 0
	movl	$0, -36(%rbp)
	.loc 1 31 0
	movl	$0, -32(%rbp)
	jmp	.L2
.L5:
	.loc 1 32 0
	movl	$0, -36(%rbp)
	jmp	.L3
.L4:
	.loc 1 33 0
	movq	-80(%rbp), %rdx
	movl	-360(%rbp), %eax
	imull	-36(%rbp), %eax
	addl	-32(%rbp), %eax
	cltq
	salq	$2, %rax
	addq	%rax, %rdx
	.loc 1 34 0
	movq	-368(%rbp), %rcx
	movl	-360(%rbp), %eax
	imull	-32(%rbp), %eax
	addl	-36(%rbp), %eax
	cltq
	salq	$2, %rax
	leaq	(%rcx,%rax), %rax
	movl	(%rax), %eax
	.loc 1 33 0
	movl	%eax, (%rdx)
	.loc 1 32 0
	addl	$1, -36(%rbp)
.L3:
	movl	-360(%rbp), %eax
	cmpl	-36(%rbp), %eax
	jg	.L4
	.loc 1 31 0
	addl	$1, -32(%rbp)
.L2:
	movl	-356(%rbp), %eax
	cmpl	-32(%rbp), %eax
	jg	.L5
	.loc 1 38 0
	movl	$32, %edi
	call	omp_set_num_threads
	.loc 1 40 0
	leaq	-368(%rbp), %rax
	movq	%rax, -336(%rbp)
	leaq	-352(%rbp), %rax
	movq	%rax, -328(%rbp)
	leaq	-80(%rbp), %rax
	movq	%rax, -320(%rbp)
	leaq	-384(%rbp), %rax
	movq	%rax, -312(%rbp)
	movl	-20(%rbp), %eax
	movl	%eax, -304(%rbp)
	movl	-28(%rbp), %eax
	movl	%eax, -300(%rbp)
	leaq	-336(%rbp), %rax
	movl	$0, %edx
	movq	%rax, %rsi
	movl	$omp_mat_mul_sse_ppl_asm.omp_fn.0, %edi
	call	GOMP_parallel_start
	leaq	-336(%rbp), %rax
	movq	%rax, %rdi
	call	omp_mat_mul_sse_ppl_asm.omp_fn.0
	call	GOMP_parallel_end
	movl	-304(%rbp), %eax
	movl	%eax, -20(%rbp)
	movl	-300(%rbp), %eax
	movl	%eax, -28(%rbp)
	.loc 1 115 0
	movq	-80(%rbp), %rax
	testq	%rax, %rax
	je	.L7
	movq	-80(%rbp), %rax
	movq	%rax, %rdi
	call	free
	movq	$0, -80(%rbp)
.L7:
	.loc 1 116 0
	addq	$376, %rsp
	popq	%rbx
	leave
	ret
	.cfi_endproc
.LFE0:
	.size	omp_mat_mul_sse_ppl_asm, .-omp_mat_mul_sse_ppl_asm
	.type	omp_mat_mul_sse_ppl_asm.omp_fn.0, @function
omp_mat_mul_sse_ppl_asm.omp_fn.0:
.LFB1:
	.loc 1 40 0
	.cfi_startproc
	pushq	%rbp
.LCFI2:
	.cfi_def_cfa_offset 16
	movq	%rsp, %rbp
	.cfi_offset 6, -16
.LCFI3:
	.cfi_def_cfa_register 6
	subq	$256, %rsp
	movq	%rdi, -248(%rbp)
.LBB2:
	.loc 1 43 0
	call	omp_get_thread_num
	movl	%eax, -4(%rbp)
	.loc 1 44 0
	movq	-248(%rbp), %rax
	movl	36(%rax), %eax
	imull	-4(%rbp), %eax
	movl	%eax, -8(%rbp)
	.loc 1 45 0
	movq	-248(%rbp), %rax
	movl	36(%rax), %eax
	addl	-8(%rbp), %eax
	movl	%eax, -12(%rbp)
	.loc 1 48 0
	movl	$0, -16(%rbp)
	.loc 1 49 0
	movl	$0, -20(%rbp)
	.loc 1 50 0
	movl	$0, -24(%rbp)
	.loc 1 69 0
	movl	-8(%rbp), %eax
	movl	%eax, -16(%rbp)
.L11:
	movl	-16(%rbp), %eax
	cmpl	-12(%rbp), %eax
	jge	.L18
.L9:
	.loc 1 70 0
	movl	$0, -20(%rbp)
.L14:
	movq	-248(%rbp), %rax
	movq	(%rax), %rax
	movl	8(%rax), %eax
	subl	$3, %eax
	cmpl	-20(%rbp), %eax
	jg	.L10
	.loc 1 69 0
	addl	$1, -16(%rbp)
	jmp	.L11
.L10:
	.loc 1 72 0
	movl	$init_array, %eax
	movups	(%rax), %xmm0
	movlps	%xmm0, -48(%rbp)
	movhps	%xmm0, -40(%rbp)
	.loc 1 73 0
	movl	$init_array, %eax
	movups	(%rax), %xmm0
	movlps	%xmm0, -64(%rbp)
	movhps	%xmm0, -56(%rbp)
	.loc 1 74 0
	movl	$init_array, %eax
	movups	(%rax), %xmm0
	movlps	%xmm0, -80(%rbp)
	movhps	%xmm0, -72(%rbp)
	.loc 1 75 0
	movl	$init_array, %eax
	movups	(%rax), %xmm0
	movlps	%xmm0, -96(%rbp)
	movhps	%xmm0, -88(%rbp)
	.loc 1 77 0
	movl	$0, -24(%rbp)
.L16:
	movq	-248(%rbp), %rax
	movl	32(%rax), %eax
	subl	$3, %eax
	cmpl	-24(%rbp), %eax
	jg	.L12
	.loc 1 96 0
	leaq	-112(%rbp), %rax
	xorps	%xmm0, %xmm0
	movlps	-48(%rbp), %xmm0
	movhps	-40(%rbp), %xmm0
	movups	%xmm0, (%rax)
	.loc 1 97 0
	leaq	-128(%rbp), %rax
	xorps	%xmm0, %xmm0
	movlps	-64(%rbp), %xmm0
	movhps	-56(%rbp), %xmm0
	movups	%xmm0, (%rax)
	.loc 1 98 0
	leaq	-144(%rbp), %rax
	xorps	%xmm0, %xmm0
	movlps	-80(%rbp), %xmm0
	movhps	-72(%rbp), %xmm0
	movups	%xmm0, (%rax)
	.loc 1 99 0
	leaq	-160(%rbp), %rax
	xorps	%xmm0, %xmm0
	movlps	-96(%rbp), %xmm0
	movhps	-88(%rbp), %xmm0
	movups	%xmm0, (%rax)
	.loc 1 101 0
	movl	$1, -24(%rbp)
.L15:
	cmpl	$3, -24(%rbp)
	jle	.L13
	.loc 1 107 0
	movq	-248(%rbp), %rax
	movq	24(%rax), %rax
	movq	(%rax), %rdx
	movq	-248(%rbp), %rax
	movl	32(%rax), %eax
	imull	-16(%rbp), %eax
	addl	-20(%rbp), %eax
	cltq
	salq	$2, %rax
	addq	%rax, %rdx
	movl	-112(%rbp), %eax
	movl	%eax, (%rdx)
	.loc 1 108 0
	movq	-248(%rbp), %rax
	movq	24(%rax), %rax
	movq	(%rax), %rdx
	movq	-248(%rbp), %rax
	movl	32(%rax), %eax
	imull	-16(%rbp), %eax
	addl	-20(%rbp), %eax
	cltq
	addq	$1, %rax
	salq	$2, %rax
	addq	%rax, %rdx
	movl	-128(%rbp), %eax
	movl	%eax, (%rdx)
	.loc 1 109 0
	movq	-248(%rbp), %rax
	movq	24(%rax), %rax
	movq	(%rax), %rdx
	movq	-248(%rbp), %rax
	movl	32(%rax), %eax
	imull	-16(%rbp), %eax
	addl	-20(%rbp), %eax
	cltq
	addq	$2, %rax
	salq	$2, %rax
	addq	%rax, %rdx
	movl	-144(%rbp), %eax
	movl	%eax, (%rdx)
	.loc 1 110 0
	movq	-248(%rbp), %rax
	movq	24(%rax), %rax
	movq	(%rax), %rdx
	movq	-248(%rbp), %rax
	movl	32(%rax), %eax
	imull	-16(%rbp), %eax
	addl	-20(%rbp), %eax
	cltq
	addq	$3, %rax
	salq	$2, %rax
	addq	%rax, %rdx
	movl	-160(%rbp), %eax
	movl	%eax, (%rdx)
	.loc 1 70 0
	addl	$4, -20(%rbp)
	jmp	.L14
.L13:
	.loc 1 102 0
	movss	-112(%rbp), %xmm1
	movl	-24(%rbp), %eax
	cltq
	movss	-112(%rbp,%rax,4), %xmm0
	addss	%xmm1, %xmm0
	movss	%xmm0, -112(%rbp)
	.loc 1 103 0
	movss	-128(%rbp), %xmm1
	movl	-24(%rbp), %eax
	cltq
	movss	-128(%rbp,%rax,4), %xmm0
	addss	%xmm1, %xmm0
	movss	%xmm0, -128(%rbp)
	.loc 1 104 0
	movss	-144(%rbp), %xmm1
	movl	-24(%rbp), %eax
	cltq
	movss	-144(%rbp,%rax,4), %xmm0
	addss	%xmm1, %xmm0
	movss	%xmm0, -144(%rbp)
	.loc 1 105 0
	movss	-160(%rbp), %xmm1
	movl	-24(%rbp), %eax
	cltq
	movss	-160(%rbp,%rax,4), %xmm0
	addss	%xmm1, %xmm0
	movss	%xmm0, -160(%rbp)
	.loc 1 101 0
	addl	$1, -24(%rbp)
	jmp	.L15
.L12:
	.loc 1 78 0
	movq	-248(%rbp), %rax
	movq	8(%rax), %rax
	movq	(%rax), %rdx
	.loc 1 79 0
	movq	-248(%rbp), %rax
	movl	32(%rax), %eax
	imull	-16(%rbp), %eax
	addl	-24(%rbp), %eax
	.loc 1 78 0
	cltq
	.loc 1 79 0
	salq	$2, %rax
	.loc 1 78 0
	leaq	(%rdx,%rax), %rax
	movups	(%rax), %xmm0
	movlps	%xmm0, -176(%rbp)
	movhps	%xmm0, -168(%rbp)
	.loc 1 81 0
	movq	-248(%rbp), %rax
	movq	16(%rax), %rax
	movq	(%rax), %rdx
	.loc 1 82 0
	movq	-248(%rbp), %rax
	movl	32(%rax), %eax
	imull	-20(%rbp), %eax
	addl	-24(%rbp), %eax
	.loc 1 81 0
	cltq
	.loc 1 82 0
	salq	$2, %rax
	.loc 1 81 0
	leaq	(%rdx,%rax), %rax
	movups	(%rax), %xmm0
	movlps	%xmm0, -192(%rbp)
	movhps	%xmm0, -184(%rbp)
	.loc 1 83 0
	movq	-248(%rbp), %rax
	movq	16(%rax), %rax
	movq	(%rax), %rdx
	.loc 1 84 0
	movl	-20(%rbp), %eax
	leal	1(%rax), %ecx
	movq	-248(%rbp), %rax
	movl	32(%rax), %eax
	imull	%ecx, %eax
	addl	-24(%rbp), %eax
	.loc 1 83 0
	cltq
	.loc 1 84 0
	salq	$2, %rax
	.loc 1 83 0
	leaq	(%rdx,%rax), %rax
	movups	(%rax), %xmm0
	movlps	%xmm0, -208(%rbp)
	movhps	%xmm0, -200(%rbp)
	.loc 1 85 0
	movq	-248(%rbp), %rax
	movq	16(%rax), %rax
	movq	(%rax), %rdx
	.loc 1 86 0
	movl	-20(%rbp), %eax
	leal	2(%rax), %ecx
	movq	-248(%rbp), %rax
	movl	32(%rax), %eax
	imull	%ecx, %eax
	addl	-24(%rbp), %eax
	.loc 1 85 0
	cltq
	.loc 1 86 0
	salq	$2, %rax
	.loc 1 85 0
	leaq	(%rdx,%rax), %rax
	movups	(%rax), %xmm0
	movlps	%xmm0, -224(%rbp)
	movhps	%xmm0, -216(%rbp)
	.loc 1 87 0
	movq	-248(%rbp), %rax
	movq	16(%rax), %rax
	movq	(%rax), %rdx
	.loc 1 88 0
	movl	-20(%rbp), %eax
	leal	3(%rax), %ecx
	movq	-248(%rbp), %rax
	movl	32(%rax), %eax
	imull	%ecx, %eax
	addl	-24(%rbp), %eax
	.loc 1 87 0
	cltq
	.loc 1 88 0
	salq	$2, %rax
	.loc 1 87 0
	leaq	(%rdx,%rax), %rax
	movups	(%rax), %xmm0
	movlps	%xmm0, -240(%rbp)
	movhps	%xmm0, -232(%rbp)
	.loc 1 90 0
	xorps	%xmm0, %xmm0
	movlps	-192(%rbp), %xmm0
	movhps	-184(%rbp), %xmm0
	xorps	%xmm1, %xmm1
	movlps	-176(%rbp), %xmm1
	movhps	-168(%rbp), %xmm1
	mulps	%xmm1, %xmm0
	addps	-48(%rbp), %xmm0
	movlps	%xmm0, -48(%rbp)
	movhps	%xmm0, -40(%rbp)
	.loc 1 91 0
	xorps	%xmm0, %xmm0
	movlps	-208(%rbp), %xmm0
	movhps	-200(%rbp), %xmm0
	xorps	%xmm1, %xmm1
	movlps	-176(%rbp), %xmm1
	movhps	-168(%rbp), %xmm1
	mulps	%xmm1, %xmm0
	addps	-64(%rbp), %xmm0
	movlps	%xmm0, -64(%rbp)
	movhps	%xmm0, -56(%rbp)
	.loc 1 92 0
	xorps	%xmm0, %xmm0
	movlps	-224(%rbp), %xmm0
	movhps	-216(%rbp), %xmm0
	xorps	%xmm1, %xmm1
	movlps	-176(%rbp), %xmm1
	movhps	-168(%rbp), %xmm1
	mulps	%xmm1, %xmm0
	addps	-80(%rbp), %xmm0
	movlps	%xmm0, -80(%rbp)
	movhps	%xmm0, -72(%rbp)
	.loc 1 93 0
	xorps	%xmm0, %xmm0
	movlps	-240(%rbp), %xmm0
	movhps	-232(%rbp), %xmm0
	xorps	%xmm1, %xmm1
	movlps	-176(%rbp), %xmm1
	movhps	-168(%rbp), %xmm1
	mulps	%xmm1, %xmm0
	addps	-96(%rbp), %xmm0
	movlps	%xmm0, -96(%rbp)
	movhps	%xmm0, -88(%rbp)
	.loc 1 77 0
	addl	$4, -24(%rbp)
	jmp	.L16
.L18:
.LBE2:
	.loc 1 40 0
	leave
	ret
	.cfi_endproc
.LFE1:
	.size	omp_mat_mul_sse_ppl_asm.omp_fn.0, .-omp_mat_mul_sse_ppl_asm.omp_fn.0
.Letext0:
	.section	.note.GNU-stack,"",@progbits
